target datalayout = "e-m:e-p270:32:32-p271:32:32-p272:64:64-i64:64-i128:128-f80:128-n8:16:32:64-S128"
target triple = "x86_64-pc-linux-gnu"

%struct.HASHCTL = type { i64, i64, i64, i64, i64, i64, ptr, ptr, ptr, ptr, ptr, ptr }

@TopMemoryContext = external global ptr, align 8
@.str = private unnamed_addr constant [17 x i8] c"TopPortalContext\00", align 1
@TopPortalContext = internal global ptr null, align 8
@.str.1 = private unnamed_addr constant [12 x i8] c"Portal hash\00", align 1
@PortalHashTable = internal global ptr null, align 8

; Function Attrs: nounwind uwtable
define dso_local void @EnablePortalManager() #0 {
  %1 = alloca %struct.HASHCTL, align 8
  %2 = alloca i32, align 4
  call void @llvm.lifetime.start.p0(i64 96, ptr %1) #6
  br label %3

3:                                                ; preds = %0
  br label %4

4:                                                ; preds = %3
  br label %5

5:                                                ; preds = %4
  store i32 1, ptr %2, align 4
  %6 = load ptr, ptr @TopMemoryContext, align 8
  %7 = call ptr @AllocSetContextCreateInternal(ptr noundef %6, ptr noundef @.str, i64 noundef 0, i64 noundef 8192, i64 noundef 8388608)
  store ptr %7, ptr @TopPortalContext, align 8
  %8 = getelementptr inbounds nuw %struct.HASHCTL, ptr %1, i32 0, i32 4
  store i64 64, ptr %8, align 8
  %9 = getelementptr inbounds nuw %struct.HASHCTL, ptr %1, i32 0, i32 5
  store i64 72, ptr %9, align 8
  %10 = call ptr @hash_create(ptr noundef @.str.1, i64 noundef 16, ptr noundef %1, i32 noundef 24)
  store ptr %10, ptr @PortalHashTable, align 8
  call void @llvm.lifetime.end.p0(i64 96, ptr %1) #6
  ret void
}