; Function Attrs: nounwind uwtable
define dso_local void @EnablePortalManager() local_unnamed_addr #0 {
  %1 = alloca %struct.HASHCTL, align 8
  call void @llvm.lifetime.start.p0(i64 96, ptr nonnull %1) #8
  %2 = load ptr, ptr @TopMemoryContext, align 8
  %3 = tail call ptr @AllocSetContextCreateInternal(ptr noundef %2, ptr noundef nonnull @.str, i64 noundef 0, i64 noundef 8192, i64 noundef 8388608) #8
  store ptr %3, ptr @TopPortalContext, align 8
  %4 = getelementptr inbounds nuw i8, ptr %1, i64 32
  store i64 64, ptr %4, align 8
  %5 = getelementptr inbounds nuw i8, ptr %1, i64 40
  store i64 72, ptr %5, align 8
  %6 = call ptr @hash_create(ptr noundef nonnull @.str.1, i64 noundef 16, ptr noundef nonnull %1, i32 noundef 24) #8
  store ptr %6, ptr @PortalHashTable, align 8
  call void @llvm.lifetime.end.p0(i64 96, ptr nonnull %1) #8
  ret void
}